target datalayout = "e-m:e-p270:32:32-p271:32:32-p272:64:64-i64:64-i128:128-f80:128-n8:16:32:64-S128"
target triple = "x86_64-pc-linux-gnu"

%struct.jpeg_decompress_struct = type { ptr, ptr, ptr, ptr, i32, i32, ptr, i32, i32, i32, i32, i32, i32, i32, double, i32, i32, i32, i32, i32, i32, i32, i32, i32, i32, i32, i32, i32, i32, i32, i32, i32, i32, ptr, i32, i32, i32, i32, i32, ptr, [4 x ptr], [4 x ptr], [4 x ptr], i32, ptr, i32, i32, [16 x i8], [16 x i8], [16 x i8], i32, i32, i8, i8, i8, i16, i16, i32, i8, i32, ptr, i32, i32, i32, i32, ptr, i32, [4 x ptr], i32, i32, i32, [10 x i32], i32, i32, i32, i32, i32, ptr, ptr, ptr, ptr, ptr, ptr, ptr, ptr, ptr, ptr, ptr }
%struct.jpeg_error_mgr = type { ptr, ptr, ptr, ptr, ptr, i32, %union.anon, i32, i64, ptr, i32, ptr, i32, i32 }
%union.anon = type { [8 x i32], [48 x i8] }

; Function Attrs: nounwind uwtable
define hidden i32 @jResyncRestart(ptr noundef %0, i32 noundef %1) #0 {
  %3 = alloca i32, align 4
  %4 = alloca ptr, align 8
  %5 = alloca i32, align 4
  %6 = alloca i32, align 4
  %7 = alloca i32, align 4
  store ptr %0, ptr %4, align 8
  store i32 %1, ptr %5, align 4
  %8 = load ptr, ptr %4, align 8
  %9 = getelementptr inbounds %struct.jpeg_decompress_struct, ptr %8, i32 0, i32 76
  %10 = load i32, ptr %9, align 4
  store i32 %10, ptr %6, align 4
  store i32 1, ptr %7, align 4
  %11 = load ptr, ptr %4, align 8
  %12 = getelementptr inbounds %struct.jpeg_decompress_struct, ptr %11, i32 0, i32 0
  %13 = load ptr, ptr %12, align 8
  %14 = getelementptr inbounds %struct.jpeg_error_mgr, ptr %13, i32 0, i32 5
  store i32 121, ptr %14, align 8
  %15 = load i32, ptr %6, align 4
  %16 = load ptr, ptr %4, align 8
  %17 = getelementptr inbounds %struct.jpeg_decompress_struct, ptr %16, i32 0, i32 0
  %18 = load ptr, ptr %17, align 8
  %19 = getelementptr inbounds %struct.jpeg_error_mgr, ptr %18, i32 0, i32 6
  %20 = getelementptr inbounds [8 x i32], ptr %19, i64 0, i64 0
  store i32 %15, ptr %20, align 4
  %21 = load i32, ptr %5, align 4
  %22 = load ptr, ptr %4, align 8
  %23 = getelementptr inbounds %struct.jpeg_decompress_struct, ptr %22, i32 0, i32 0
  %24 = load ptr, ptr %23, align 8
  %25 = getelementptr inbounds %struct.jpeg_error_mgr, ptr %24, i32 0, i32 6
  %26 = getelementptr inbounds [8 x i32], ptr %25, i64 0, i64 1
  store i32 %21, ptr %26, align 4
  %27 = load ptr, ptr %4, align 8
  %28 = getelementptr inbounds %struct.jpeg_decompress_struct, ptr %27, i32 0, i32 0
  %29 = load ptr, ptr %28, align 8
  %30 = getelementptr inbounds %struct.jpeg_error_mgr, ptr %29, i32 0, i32 1
  %31 = load ptr, ptr %30, align 8
  %32 = load ptr, ptr %4, align 8
  call void %31(ptr noundef %32, i32 noundef -1)
  br label %33

33:                                               ; preds = %115, %2
  %34 = load i32, ptr %6, align 4
  %35 = icmp slt i32 %34, 192
  br i1 %35, label %36, label %37

36:                                               ; preds = %33
  store i32 2, ptr %7, align 4
  br label %78

37:                                               ; preds = %33
  %38 = load i32, ptr %6, align 4
  %39 = icmp slt i32 %38, 208
  br i1 %39, label %43, label %40

40:                                               ; preds = %37
  %41 = load i32, ptr %6, align 4
  %42 = icmp sgt i32 %41, 215
  br i1 %42, label %43, label %44

43:                                               ; preds = %40, %37
  store i32 3, ptr %7, align 4
  br label %77

44:                                               ; preds = %40
  %45 = load i32, ptr %6, align 4
  %46 = load i32, ptr %5, align 4
  %47 = add nsw i32 %46, 1
  %48 = and i32 %47, 7
  %49 = add nsw i32 208, %48
  %50 = icmp eq i32 %45, %49
  br i1 %50, label %58, label %51

51:                                               ; preds = %44
  %52 = load i32, ptr %6, align 4
  %53 = load i32, ptr %5, align 4
  %54 = add nsw i32 %53, 2
  %55 = and i32 %54, 7
  %56 = add nsw i32 208, %55
  %57 = icmp eq i32 %52, %56
  br i1 %57, label %58, label %59

58:                                               ; preds = %51, %44
  store i32 3, ptr %7, align 4
  br label %76

59:                                               ; preds = %51
  %60 = load i32, ptr %6, align 4
  %61 = load i32, ptr %5, align 4
  %62 = sub nsw i32 %61, 1
  %63 = and i32 %62, 7
  %64 = add nsw i32 208, %63
  %65 = icmp eq i32 %60, %64
  br i1 %65, label %73, label %66

66:                                               ; preds = %59
  %67 = load i32, ptr %6, align 4
  %68 = load i32, ptr %5, align 4
  %69 = sub nsw i32 %68, 2
  %70 = and i32 %69, 7
  %71 = add nsw i32 208, %70
  %72 = icmp eq i32 %67, %71
  br i1 %72, label %73, label %74

73:                                               ; preds = %66, %59
  store i32 2, ptr %7, align 4
  br label %75

74:                                               ; preds = %66
  store i32 1, ptr %7, align 4
  br label %75

75:                                               ; preds = %74, %73
  br label %76

76:                                               ; preds = %75, %58
  br label %77

77:                                               ; preds = %76, %43
  br label %78

78:                                               ; preds = %77, %36
  %79 = load ptr, ptr %4, align 8
  %80 = getelementptr inbounds %struct.jpeg_decompress_struct, ptr %79, i32 0, i32 0
  %81 = load ptr, ptr %80, align 8
  %82 = getelementptr inbounds %struct.jpeg_error_mgr, ptr %81, i32 0, i32 5
  store i32 97, ptr %82, align 8
  %83 = load i32, ptr %6, align 4
  %84 = load ptr, ptr %4, align 8
  %85 = getelementptr inbounds %struct.jpeg_decompress_struct, ptr %84, i32 0, i32 0
  %86 = load ptr, ptr %85, align 8
  %87 = getelementptr inbounds %struct.jpeg_error_mgr, ptr %86, i32 0, i32 6
  %88 = getelementptr inbounds [8 x i32], ptr %87, i64 0, i64 0
  store i32 %83, ptr %88, align 4
  %89 = load i32, ptr %7, align 4
  %90 = load ptr, ptr %4, align 8
  %91 = getelementptr inbounds %struct.jpeg_decompress_struct, ptr %90, i32 0, i32 0
  %92 = load ptr, ptr %91, align 8
  %93 = getelementptr inbounds %struct.jpeg_error_mgr, ptr %92, i32 0, i32 6
  %94 = getelementptr inbounds [8 x i32], ptr %93, i64 0, i64 1
  store i32 %89, ptr %94, align 4
  %95 = load ptr, ptr %4, align 8
  %96 = getelementptr inbounds %struct.jpeg_decompress_struct, ptr %95, i32 0, i32 0
  %97 = load ptr, ptr %96, align 8
  %98 = getelementptr inbounds %struct.jpeg_error_mgr, ptr %97, i32 0, i32 1
  %99 = load ptr, ptr %98, align 8
  %100 = load ptr, ptr %4, align 8
  call void %99(ptr noundef %100, i32 noundef 4)
  %101 = load i32, ptr %7, align 4
  switch i32 %101, label %115 [
    i32 1, label %102
    i32 2, label %105
    i32 3, label %114
  ]

102:                                              ; preds = %78
  %103 = load ptr, ptr %4, align 8
  %104 = getelementptr inbounds %struct.jpeg_decompress_struct, ptr %103, i32 0, i32 76
  store i32 0, ptr %104, align 4
  store i32 1, ptr %3, align 4
  br label %116

105:                                              ; preds = %78
  %106 = load ptr, ptr %4, align 8
  %107 = call i32 @next_marker(ptr noundef %106)
  %108 = icmp ne i32 %107, 0
  br i1 %108, label %110, label %109

109:                                              ; preds = %105
  store i32 0, ptr %3, align 4
  br label %116

110:                                              ; preds = %105
  %111 = load ptr, ptr %4, align 8
  %112 = getelementptr inbounds %struct.jpeg_decompress_struct, ptr %111, i32 0, i32 76
  %113 = load i32, ptr %112, align 4
  store i32 %113, ptr %6, align 4
  br label %115

114:                                              ; preds = %78
  store i32 1, ptr %3, align 4
  br label %116

115:                                              ; preds = %110, %78
  br label %33

116:                                              ; preds = %114, %109, %102
  %117 = load i32, ptr %3, align 4
  ret i32 %117
}